; Function Attrs: nounwind uwtable
define dso_local i64 @GetCurrentChunkReplayStartTime() local_unnamed_addr #2 {
  %1 = load ptr, ptr @XLogRecoveryCtl, align 8
  %2 = getelementptr inbounds nuw i8, ptr %1, i64 96
  %3 = tail call i8 asm sideeffect "\09lock\09\09\09\0A\09xchgb\09$0,$1\09\0A", "=q,=*m,0,*m,~{memory},~{cc},~{dirflag},~{fpsr},~{flags}"(ptr nonnull elementtype(i8) %2, i8 1, ptr nonnull elementtype(i8) %2) #23, !srcloc !10
  %.not = icmp eq i8 %3, 0
  br i1 %.not, label %8, label %4

4:                                                ; preds = %0
  %5 = load ptr, ptr @XLogRecoveryCtl, align 8
  %6 = getelementptr inbounds nuw i8, ptr %5, i64 96
  %7 = tail call i32 @s_lock(ptr noundef nonnull %6, ptr noundef nonnull @.str.6, i32 noundef 4642, ptr noundef nonnull @__func__.GetCurrentChunkReplayStartTime) #23
  br label %8

8:                                                ; preds = %0, %4
  %9 = load ptr, ptr @XLogRecoveryCtl, align 8
  %10 = getelementptr inbounds nuw i8, ptr %9, i64 72
  %11 = load i64, ptr %10, align 8
  tail call void asm sideeffect "", "~{memory},~{dirflag},~{fpsr},~{flags}"() #23, !srcloc !39
  %12 = load ptr, ptr @XLogRecoveryCtl, align 8
  %13 = getelementptr inbounds nuw i8, ptr %12, i64 96
  store i8 0, ptr %13, align 8
  ret i64 %11
}